target datalayout = "e-m:e-p270:32:32-p271:32:32-p272:64:64-i64:64-i128:128-f80:128-n8:16:32:64-S128"
target triple = "x86_64-pc-linux-gnu"

%struct._header_field_info = type { ptr, ptr, i32, i32, ptr, i64, ptr, i32, i32, i32, i32, ptr }

@.str.375 = private unnamed_addr constant [54 x i8] c"field %s is a 64-bit field with a 32-bit value_string\00", align 1

; Function Attrs: null_pointer_is_valid sspstrong uwtable
define internal ptr @hf_try_val64_to_str(i64 noundef %0, ptr noundef %1) #0 {
  %3 = alloca ptr, align 8
  %4 = alloca i64, align 8
  %5 = alloca ptr, align 8
  store i64 %0, ptr %4, align 8
  store ptr %1, ptr %5, align 8
  %6 = load ptr, ptr %5, align 8
  %7 = getelementptr inbounds nuw %struct._header_field_info, ptr %6, i32 0, i32 3
  %8 = load i32, ptr %7, align 4
  %9 = and i32 %8, 1024
  %10 = icmp ne i32 %9, 0
  br i1 %10, label %11, label %29

11:                                               ; preds = %2
  %12 = load ptr, ptr %5, align 8
  %13 = getelementptr inbounds nuw %struct._header_field_info, ptr %12, i32 0, i32 3
  %14 = load i32, ptr %13, align 4
  %15 = and i32 %14, 512
  %16 = icmp ne i32 %15, 0
  br i1 %16, label %17, label %23

17:                                               ; preds = %11
  %18 = load i64, ptr %4, align 8
  %19 = load ptr, ptr %5, align 8
  %20 = getelementptr inbounds nuw %struct._header_field_info, ptr %19, i32 0, i32 4
  %21 = load ptr, ptr %20, align 8
  %22 = call ptr @try_val64_to_str_ext(i64 noundef %18, ptr noundef %21)
  store ptr %22, ptr %3, align 8
  br label %57

23:                                               ; preds = %11
  %24 = load i64, ptr %4, align 8
  %25 = load ptr, ptr %5, align 8
  %26 = getelementptr inbounds nuw %struct._header_field_info, ptr %25, i32 0, i32 4
  %27 = load ptr, ptr %26, align 8
  %28 = call ptr @try_val64_to_str(i64 noundef %24, ptr noundef %27)
  store ptr %28, ptr %3, align 8
  br label %57

29:                                               ; preds = %2
  %30 = load ptr, ptr %5, align 8
  %31 = getelementptr inbounds nuw %struct._header_field_info, ptr %30, i32 0, i32 3
  %32 = load i32, ptr %31, align 4
  %33 = and i32 %32, 256
  %34 = icmp ne i32 %33, 0
  br i1 %34, label %35, label %41

35:                                               ; preds = %29
  %36 = load i64, ptr %4, align 8
  %37 = load ptr, ptr %5, align 8
  %38 = getelementptr inbounds nuw %struct._header_field_info, ptr %37, i32 0, i32 4
  %39 = load ptr, ptr %38, align 8
  %40 = call ptr @try_rval64_to_str(i64 noundef %36, ptr noundef %39)
  store ptr %40, ptr %3, align 8
  br label %57

41:                                               ; preds = %29
  %42 = load ptr, ptr %5, align 8
  %43 = getelementptr inbounds nuw %struct._header_field_info, ptr %42, i32 0, i32 3
  %44 = load i32, ptr %43, align 4
  %45 = and i32 %44, 4096
  %46 = icmp ne i32 %45, 0
  br i1 %46, label %47, label %53

47:                                               ; preds = %41
  %48 = load i64, ptr %4, align 8
  %49 = load ptr, ptr %5, align 8
  %50 = getelementptr inbounds nuw %struct._header_field_info, ptr %49, i32 0, i32 4
  %51 = load ptr, ptr %50, align 8
  %52 = call ptr @unit_name_string_get_value64(i64 noundef %48, ptr noundef %51)
  store ptr %52, ptr %3, align 8
  br label %57

53:                                               ; preds = %41
  %54 = load ptr, ptr %5, align 8
  %55 = getelementptr inbounds nuw %struct._header_field_info, ptr %54, i32 0, i32 1
  %56 = load ptr, ptr %55, align 8
  call void (ptr, ...) @proto_report_dissector_bug(ptr noundef @.str.375, ptr noundef %56) #27
  unreachable

57:                                               ; preds = %47, %35, %23, %17
  %58 = load ptr, ptr %3, align 8
  ret ptr %58
}

; Function Attrs: null_pointer_is_valid sspstrong uwtable
define internal ptr @hf_try_val64_to_str_const(i64 noundef %0, ptr noundef %1, ptr noundef %2) #0 {
  %4 = alloca i64, align 8
  %5 = alloca ptr, align 8
  %6 = alloca ptr, align 8
  %7 = alloca ptr, align 8
  store i64 %0, ptr %4, align 8
  store ptr %1, ptr %5, align 8
  store ptr %2, ptr %6, align 8
  call void @llvm.lifetime.start.p0(i64 8, ptr %7) #24
  %8 = load i64, ptr %4, align 8
  %9 = load ptr, ptr %5, align 8
  %10 = call ptr @hf_try_val64_to_str(i64 noundef %8, ptr noundef %9)
  store ptr %10, ptr %7, align 8
  %11 = load ptr, ptr %7, align 8
  %12 = icmp ne ptr %11, null
  br i1 %12, label %13, label %15

13:                                               ; preds = %3
  %14 = load ptr, ptr %7, align 8
  br label %17

15:                                               ; preds = %3
  %16 = load ptr, ptr %6, align 8
  br label %17

17:                                               ; preds = %15, %13
  %18 = phi ptr [ %14, %13 ], [ %16, %15 ]
  call void @llvm.lifetime.end.p0(i64 8, ptr %7) #24
  ret ptr %18
}