; Function Attrs: null_pointer_is_valid sspstrong uwtable
define internal fastcc nonnull ptr @hf_try_val64_to_str_const(i64 noundef %0, ptr noundef nonnull readonly captures(none) %1) unnamed_addr #0 {
  %3 = getelementptr inbounds nuw i8, ptr %1, i64 20
  %4 = load i32, ptr %3, align 4
  %5 = and i32 %4, 1024
  %.not.i = icmp eq i32 %5, 0
  br i1 %.not.i, label %14, label %6

6:                                                ; preds = %2
  %7 = and i32 %4, 512
  %.not15.i = icmp eq i32 %7, 0
  %8 = getelementptr inbounds nuw i8, ptr %1, i64 24
  %9 = load ptr, ptr %8, align 8
  br i1 %.not15.i, label %12, label %10

10:                                               ; preds = %6
  %11 = tail call ptr @try_val64_to_str_ext(i64 noundef %0, ptr noundef %9)
  br label %hf_try_val64_to_str.exit

12:                                               ; preds = %6
  %13 = tail call ptr @try_val64_to_str(i64 noundef %0, ptr noundef %9)
  br label %hf_try_val64_to_str.exit

14:                                               ; preds = %2
  %15 = and i32 %4, 256
  %.not13.i = icmp eq i32 %15, 0
  br i1 %.not13.i, label %20, label %16

16:                                               ; preds = %14
  %17 = getelementptr inbounds nuw i8, ptr %1, i64 24
  %18 = load ptr, ptr %17, align 8
  %19 = tail call ptr @try_rval64_to_str(i64 noundef %0, ptr noundef %18)
  br label %hf_try_val64_to_str.exit

20:                                               ; preds = %14
  %21 = and i32 %4, 4096
  %.not14.i = icmp eq i32 %21, 0
  br i1 %.not14.i, label %26, label %22

22:                                               ; preds = %20
  %23 = getelementptr inbounds nuw i8, ptr %1, i64 24
  %24 = load ptr, ptr %23, align 8
  %25 = tail call ptr @unit_name_string_get_value64(i64 noundef %0, ptr noundef %24)
  br label %hf_try_val64_to_str.exit

26:                                               ; preds = %20
  %27 = getelementptr inbounds nuw i8, ptr %1, i64 8
  %28 = load ptr, ptr %27, align 8
  tail call void (ptr, ...) @proto_report_dissector_bug(ptr noundef nonnull @.str.375, ptr noundef %28) #37
  unreachable

hf_try_val64_to_str.exit:                         ; preds = %10, %12, %16, %22
  %.0.i = phi ptr [ %11, %10 ], [ %13, %12 ], [ %19, %16 ], [ %25, %22 ]
  %.not = icmp eq ptr %.0.i, null
  %29 = select i1 %.not, ptr @.str.80, ptr %.0.i
  ret ptr %29
}